target datalayout = "e-m:e-p270:32:32-p271:32:32-p272:64:64-i64:64-i128:128-f80:128-n8:16:32:64-S128"
target triple = "x86_64-pc-linux-gnu"

%struct._asn1_ctx_t = type { i32, i32, i8, ptr, ptr, ptr, ptr, ptr, %struct.anon, %struct.anon.2, %struct.anon.3, ptr }
%struct.anon = type { i32, i8, i8, i8, ptr, ptr, i32, i32, ptr, ptr, ptr, %union.anon }
%union.anon = type { %struct.anon.0 }
%struct.anon.0 = type { ptr }
%struct.anon.2 = type { ptr, ptr, ptr }
%struct.anon.3 = type { i32, i8, ptr, i32, i32, ptr, ptr, ptr, %union.anon.4 }
%union.anon.4 = type { %struct.anon.5 }
%struct.anon.5 = type { ptr }
%struct._packet_info = type { ptr, ptr, i32, i32, %struct.nstime_t, %struct.nstime_t, %struct.nstime_t, i8, ptr, ptr, ptr, ptr, %struct._address, %struct._address, %struct._address, %struct._address, %struct._address, %struct._address, i32, ptr, i8, [3 x i8], %struct.anon.7, i32, i32, i32, i32, ptr, i8, ptr, ptr, i16, i16, i32, i32, i16, i32, i32, ptr, ptr, ptr, i8, i8, i16, i16, i16, i32, i16, i16, ptr, ptr, ptr, ptr, ptr, i32, i32 }
%struct.nstime_t = type { i64, i32 }
%struct._address = type { i32, i32, ptr, ptr }
%struct.anon.7 = type { i8, [3 x i8] }
%struct.ranap_private_data_t = type { i32, i16, i32 }

@hf_ranap_transportLayerAddress_ipv4 = internal global i32 0, align 4
@hf_ranap_transportLayerAddress_ipv6 = internal global i32 0, align 4
@hf_ranap_transportLayerAddress_nsap = internal global i32 0, align 4
@ett_ranap_transportLayerAddress = internal global i32 0, align 4
@ett_ranap_transportLayerAddress_nsap = internal global i32 0, align 4
@proto_ranap = internal global i32 0, align 4
@.str.2481 = private unnamed_addr constant [17 x i8] c"Padded NSAP Data\00", align 1

; Function Attrs: null_pointer_is_valid sspstrong uwtable
define internal ptr @ranap_get_private_data(ptr noundef %0) #0 {
  %2 = alloca ptr, align 8
  %3 = alloca ptr, align 8
  %4 = alloca ptr, align 8
  store ptr %0, ptr %2, align 8
  call void @llvm.lifetime.start.p0(i64 8, ptr %3) #5
  %5 = load ptr, ptr %2, align 8
  %6 = getelementptr inbounds nuw %struct._asn1_ctx_t, ptr %5, i32 0, i32 3
  %7 = load ptr, ptr %6, align 8
  store ptr %7, ptr %3, align 8
  call void @llvm.lifetime.start.p0(i64 8, ptr %4) #5
  %8 = load ptr, ptr %3, align 8
  %9 = getelementptr inbounds nuw %struct._packet_info, ptr %8, i32 0, i32 51
  %10 = load ptr, ptr %9, align 8
  %11 = load ptr, ptr %3, align 8
  %12 = load i32, ptr @proto_ranap, align 4
  %13 = call ptr @p_get_proto_data(ptr noundef %10, ptr noundef %11, i32 noundef %12, i32 noundef 0)
  store ptr %13, ptr %4, align 8
  %14 = load ptr, ptr %4, align 8
  %15 = icmp eq ptr %14, null
  br i1 %15, label %16, label %27

16:                                               ; preds = %1
  %17 = load ptr, ptr %3, align 8
  %18 = getelementptr inbounds nuw %struct._packet_info, ptr %17, i32 0, i32 51
  %19 = load ptr, ptr %18, align 8
  %20 = call noalias ptr @wmem_alloc0(ptr noundef %19, i64 noundef 12) #6
  store ptr %20, ptr %4, align 8
  %21 = load ptr, ptr %3, align 8
  %22 = getelementptr inbounds nuw %struct._packet_info, ptr %21, i32 0, i32 51
  %23 = load ptr, ptr %22, align 8
  %24 = load ptr, ptr %3, align 8
  %25 = load i32, ptr @proto_ranap, align 4
  %26 = load ptr, ptr %4, align 8
  call void @p_add_proto_data(ptr noundef %23, ptr noundef %24, i32 noundef %25, i32 noundef 0, ptr noundef %26)
  br label %27

27:                                               ; preds = %16, %1
  %28 = load ptr, ptr %4, align 8
  call void @llvm.lifetime.end.p0(i64 8, ptr %4) #5
  call void @llvm.lifetime.end.p0(i64 8, ptr %3) #5
  ret ptr %28
}

; Function Attrs: null_pointer_is_valid sspstrong uwtable
define internal void @private_data_set_transportLayerAddress_ipv4(ptr noundef %0, i32 noundef %1) #0 {
  %3 = alloca ptr, align 8
  %4 = alloca i32, align 4
  %5 = alloca ptr, align 8
  store ptr %0, ptr %3, align 8
  store i32 %1, ptr %4, align 4
  call void @llvm.lifetime.start.p0(i64 8, ptr %5) #5
  %6 = load ptr, ptr %3, align 8
  %7 = call ptr @ranap_get_private_data(ptr noundef %6)
  store ptr %7, ptr %5, align 8
  %8 = load i32, ptr %4, align 4
  %9 = load ptr, ptr %5, align 8
  %10 = getelementptr inbounds nuw %struct.ranap_private_data_t, ptr %9, i32 0, i32 0
  store i32 %8, ptr %10, align 4
  call void @llvm.lifetime.end.p0(i64 8, ptr %5) #5
  ret void
}

; Function Attrs: null_pointer_is_valid sspstrong uwtable
define internal i32 @dissect_ranap_TransportLayerAddress(ptr noundef %0, i32 noundef %1, ptr noundef %2, ptr noundef %3, i32 noundef %4) #0 {
  %6 = alloca i32, align 4
  %7 = alloca ptr, align 8
  %8 = alloca i32, align 4
  %9 = alloca ptr, align 8
  %10 = alloca ptr, align 8
  %11 = alloca i32, align 4
  %12 = alloca ptr, align 8
  %13 = alloca ptr, align 8
  %14 = alloca ptr, align 8
  %15 = alloca ptr, align 8
  %16 = alloca ptr, align 8
  %17 = alloca ptr, align 8
  %18 = alloca i32, align 4
  %19 = alloca i32, align 4
  store ptr %0, ptr %7, align 8
  store i32 %1, ptr %8, align 4
  store ptr %2, ptr %9, align 8
  store ptr %3, ptr %10, align 8
  store i32 %4, ptr %11, align 4
  call void @llvm.lifetime.start.p0(i64 8, ptr %12) #5
  store ptr null, ptr %12, align 8
  call void @llvm.lifetime.start.p0(i64 8, ptr %13) #5
  call void @llvm.lifetime.start.p0(i64 8, ptr %14) #5
  call void @llvm.lifetime.start.p0(i64 8, ptr %15) #5
  call void @llvm.lifetime.start.p0(i64 8, ptr %16) #5
  call void @llvm.lifetime.start.p0(i64 8, ptr %17) #5
  call void @llvm.lifetime.start.p0(i64 4, ptr %18) #5
  %20 = load ptr, ptr %7, align 8
  %21 = load i32, ptr %8, align 4
  %22 = load ptr, ptr %9, align 8
  %23 = load ptr, ptr %10, align 8
  %24 = load i32, ptr %11, align 4
  %25 = call i32 @dissect_per_bit_string(ptr noundef %20, i32 noundef %21, ptr noundef %22, ptr noundef %23, i32 noundef %24, i32 noundef 1, i32 noundef 160, i1 noundef zeroext true, ptr noundef null, i32 noundef 0, ptr noundef %12, ptr noundef null)
  store i32 %25, ptr %8, align 4
  %26 = load ptr, ptr %12, align 8
  %27 = icmp ne ptr %26, null
  br i1 %27, label %30, label %28

28:                                               ; preds = %5
  %29 = load i32, ptr %8, align 4
  store i32 %29, ptr %6, align 4
  store i32 1, ptr %19, align 4
  br label %109

30:                                               ; preds = %5
  %31 = load ptr, ptr %12, align 8
  %32 = call i32 @tvb_reported_length(ptr noundef %31)
  store i32 %32, ptr %18, align 4
  %33 = load ptr, ptr %9, align 8
  %34 = getelementptr inbounds nuw %struct._asn1_ctx_t, ptr %33, i32 0, i32 4
  %35 = load ptr, ptr %34, align 8
  %36 = load i32, ptr @ett_ranap_transportLayerAddress, align 4
  %37 = call ptr @proto_item_add_subtree(ptr noundef %35, i32 noundef %36)
  store ptr %37, ptr %14, align 8
  %38 = load i32, ptr %18, align 4
  %39 = icmp eq i32 %38, 4
  br i1 %39, label %40, label %49

40:                                               ; preds = %30
  %41 = load ptr, ptr %14, align 8
  %42 = load i32, ptr @hf_ranap_transportLayerAddress_ipv4, align 4
  %43 = load ptr, ptr %12, align 8
  %44 = load i32, ptr %18, align 4
  %45 = call ptr @proto_tree_add_item(ptr noundef %41, i32 noundef %42, ptr noundef %43, i32 noundef 0, i32 noundef %44, i32 noundef 0)
  %46 = load ptr, ptr %9, align 8
  %47 = load ptr, ptr %12, align 8
  %48 = call i32 @tvb_get_ipv4(ptr noundef %47, i32 noundef 0)
  call void @private_data_set_transportLayerAddress_ipv4(ptr noundef %46, i32 noundef %48)
  br label %49

49:                                               ; preds = %40, %30
  %50 = load i32, ptr %18, align 4
  %51 = icmp eq i32 %50, 16
  br i1 %51, label %52, label %58

52:                                               ; preds = %49
  %53 = load ptr, ptr %14, align 8
  %54 = load i32, ptr @hf_ranap_transportLayerAddress_ipv6, align 4
  %55 = load ptr, ptr %12, align 8
  %56 = load i32, ptr %18, align 4
  %57 = call ptr @proto_tree_add_item(ptr noundef %53, i32 noundef %54, ptr noundef %55, i32 noundef 0, i32 noundef %56, i32 noundef 0)
  br label %58

58:                                               ; preds = %52, %49
  %59 = load i32, ptr %18, align 4
  %60 = icmp eq i32 %59, 20
  br i1 %60, label %64, label %61

61:                                               ; preds = %58
  %62 = load i32, ptr %18, align 4
  %63 = icmp eq i32 %62, 7
  br i1 %63, label %64, label %107

64:                                               ; preds = %61, %58
  %65 = load i32, ptr %18, align 4
  %66 = icmp eq i32 %65, 7
  br i1 %66, label %67, label %86

67:                                               ; preds = %64
  %68 = load ptr, ptr %9, align 8
  %69 = getelementptr inbounds nuw %struct._asn1_ctx_t, ptr %68, i32 0, i32 3
  %70 = load ptr, ptr %69, align 8
  %71 = getelementptr inbounds nuw %struct._packet_info, ptr %70, i32 0, i32 51
  %72 = load ptr, ptr %71, align 8
  %73 = call noalias ptr @wmem_alloc0(ptr noundef %72, i64 noundef 20) #6
  store ptr %73, ptr %16, align 8
  %74 = load ptr, ptr %12, align 8
  %75 = load ptr, ptr %16, align 8
  %76 = load i32, ptr %18, align 4
  %77 = sext i32 %76 to i64
  %78 = call ptr @tvb_memcpy(ptr noundef %74, ptr noundef %75, i32 noundef 0, i64 noundef %77)
  %79 = load ptr, ptr %7, align 8
  %80 = load ptr, ptr %16, align 8
  %81 = call ptr @tvb_new_child_real_data(ptr noundef %79, ptr noundef %80, i32 noundef 20, i32 noundef 20)
  store ptr %81, ptr %17, align 8
  %82 = load ptr, ptr %9, align 8
  %83 = getelementptr inbounds nuw %struct._asn1_ctx_t, ptr %82, i32 0, i32 3
  %84 = load ptr, ptr %83, align 8
  %85 = load ptr, ptr %17, align 8
  call void @add_new_data_source(ptr noundef %84, ptr noundef %85, ptr noundef @.str.2481)
  br label %88

86:                                               ; preds = %64
  %87 = load ptr, ptr %12, align 8
  store ptr %87, ptr %17, align 8
  br label %88

88:                                               ; preds = %86, %67
  %89 = load ptr, ptr %14, align 8
  %90 = load i32, ptr @hf_ranap_transportLayerAddress_nsap, align 4
  %91 = load ptr, ptr %12, align 8
  %92 = load i32, ptr %18, align 4
  %93 = call ptr @proto_tree_add_item(ptr noundef %89, i32 noundef %90, ptr noundef %91, i32 noundef 0, i32 noundef %92, i32 noundef 0)
  store ptr %93, ptr %13, align 8
  %94 = load ptr, ptr %13, align 8
  %95 = load i32, ptr @ett_ranap_transportLayerAddress_nsap, align 4
  %96 = call ptr @proto_item_add_subtree(ptr noundef %94, i32 noundef %95)
  store ptr %96, ptr %15, align 8
  %97 = load ptr, ptr %12, align 8
  %98 = call i32 @tvb_get_ntoh24(ptr noundef %97, i32 noundef 0)
  %99 = icmp eq i32 %98, 3473409
  br i1 %99, label %100, label %104

100:                                              ; preds = %88
  %101 = load ptr, ptr %9, align 8
  %102 = load ptr, ptr %12, align 8
  %103 = call i32 @tvb_get_ipv4(ptr noundef %102, i32 noundef 3)
  call void @private_data_set_transportLayerAddress_ipv4(ptr noundef %101, i32 noundef %103)
  br label %104

104:                                              ; preds = %100, %88
  %105 = load ptr, ptr %17, align 8
  %106 = load ptr, ptr %15, align 8
  call void @dissect_nsap(ptr noundef %105, i32 noundef 0, i32 noundef 20, ptr noundef %106)
  br label %107

107:                                              ; preds = %104, %61
  %108 = load i32, ptr %8, align 4
  store i32 %108, ptr %6, align 4
  store i32 1, ptr %19, align 4
  br label %109

109:                                              ; preds = %107, %28
  call void @llvm.lifetime.end.p0(i64 4, ptr %18) #5
  call void @llvm.lifetime.end.p0(i64 8, ptr %17) #5
  call void @llvm.lifetime.end.p0(i64 8, ptr %16) #5
  call void @llvm.lifetime.end.p0(i64 8, ptr %15) #5
  call void @llvm.lifetime.end.p0(i64 8, ptr %14) #5
  call void @llvm.lifetime.end.p0(i64 8, ptr %13) #5
  call void @llvm.lifetime.end.p0(i64 8, ptr %12) #5
  %110 = load i32, ptr %6, align 4
  ret i32 %110
}