; Function Attrs: null_pointer_is_valid sspstrong uwtable
define internal i32 @dissect_ranap_TransportLayerAddress(ptr noundef %0, i32 noundef %1, ptr noundef %2, ptr noundef %3, i32 noundef %4) #0 {
  %6 = alloca ptr, align 8
  call void @llvm.lifetime.start.p0(i64 8, ptr nonnull %6) #4
  store ptr null, ptr %6, align 8
  %7 = call i32 @dissect_per_bit_string(ptr noundef %0, i32 noundef %1, ptr noundef %2, ptr noundef %3, i32 noundef %4, i32 noundef 1, i32 noundef 160, i1 noundef zeroext true, ptr noundef null, i32 noundef 0, ptr noundef nonnull %6, ptr noundef null)
  %8 = load ptr, ptr %6, align 8
  %.not = icmp eq ptr %8, null
  br i1 %.not, label %.thread, label %9

9:                                                ; preds = %5
  %10 = call i32 @tvb_reported_length(ptr noundef nonnull %8)
  %11 = getelementptr inbounds nuw i8, ptr %2, i64 24
  %12 = load ptr, ptr %11, align 8
  %13 = load i32, ptr @ett_ranap_transportLayerAddress, align 4
  %14 = call ptr @proto_item_add_subtree(ptr noundef %12, i32 noundef %13)
  switch i32 %10, label %.thread [
    i32 4, label %15
    i32 16, label %32
    i32 7, label %36
    i32 20, label %46
  ]

15:                                               ; preds = %9
  %16 = load i32, ptr @hf_ranap_transportLayerAddress_ipv4, align 4
  %17 = load ptr, ptr %6, align 8
  %18 = call ptr @proto_tree_add_item(ptr noundef %14, i32 noundef %16, ptr noundef %17, i32 noundef 0, i32 noundef 4, i32 noundef 0)
  %19 = load ptr, ptr %6, align 8
  %20 = call i32 @tvb_get_ipv4(ptr noundef %19, i32 noundef 0)
  %21 = getelementptr i8, ptr %2, i64 16
  %.val = load ptr, ptr %21, align 8
  %22 = getelementptr inbounds nuw i8, ptr %.val, i64 408
  %23 = load ptr, ptr %22, align 8
  %24 = load i32, ptr @proto_ranap, align 4
  %25 = call ptr @p_get_proto_data(ptr noundef %23, ptr noundef %.val, i32 noundef %24, i32 noundef 0)
  %26 = icmp eq ptr %25, null
  br i1 %26, label %27, label %private_data_set_transportLayerAddress_ipv4.exit

27:                                               ; preds = %15
  %28 = load ptr, ptr %22, align 8
  %29 = call noalias dereferenceable_or_null(12) ptr @wmem_alloc0(ptr noundef %28, i64 noundef 12) #5
  %30 = load ptr, ptr %22, align 8
  %31 = load i32, ptr @proto_ranap, align 4
  call void @p_add_proto_data(ptr noundef %30, ptr noundef %.val, i32 noundef %31, i32 noundef 0, ptr noundef %29)
  br label %private_data_set_transportLayerAddress_ipv4.exit

private_data_set_transportLayerAddress_ipv4.exit: ; preds = %15, %27
  %.0.i.i = phi ptr [ %29, %27 ], [ %25, %15 ]
  store i32 %20, ptr %.0.i.i, align 4
  br label %.thread

32:                                               ; preds = %9
  %33 = load i32, ptr @hf_ranap_transportLayerAddress_ipv6, align 4
  %34 = load ptr, ptr %6, align 8
  %35 = call ptr @proto_tree_add_item(ptr noundef %14, i32 noundef %33, ptr noundef %34, i32 noundef 0, i32 noundef 16, i32 noundef 0)
  br label %.thread

36:                                               ; preds = %9
  %37 = getelementptr inbounds nuw i8, ptr %2, i64 16
  %38 = load ptr, ptr %37, align 8
  %39 = getelementptr inbounds nuw i8, ptr %38, i64 408
  %40 = load ptr, ptr %39, align 8
  %41 = call noalias dereferenceable_or_null(20) ptr @wmem_alloc0(ptr noundef %40, i64 noundef 20) #5
  %42 = load ptr, ptr %6, align 8
  %43 = call ptr @tvb_memcpy(ptr noundef %42, ptr noundef %41, i32 noundef 0, i64 noundef 7)
  %44 = call ptr @tvb_new_child_real_data(ptr noundef %0, ptr noundef %41, i32 noundef 20, i32 noundef 20)
  %45 = load ptr, ptr %37, align 8
  call void @add_new_data_source(ptr noundef %45, ptr noundef %44, ptr noundef nonnull @.str.2481)
  %.pre = load ptr, ptr %6, align 8
  br label %48

46:                                               ; preds = %9
  %47 = load ptr, ptr %6, align 8
  br label %48

48:                                               ; preds = %46, %36
  %49 = phi ptr [ %.pre, %36 ], [ %47, %46 ]
  %.032 = phi ptr [ %44, %36 ], [ %47, %46 ]
  %50 = load i32, ptr @hf_ranap_transportLayerAddress_nsap, align 4
  %51 = call ptr @proto_tree_add_item(ptr noundef %14, i32 noundef %50, ptr noundef %49, i32 noundef 0, i32 noundef %10, i32 noundef 0)
  %52 = load i32, ptr @ett_ranap_transportLayerAddress_nsap, align 4
  %53 = call ptr @proto_item_add_subtree(ptr noundef %51, i32 noundef %52)
  %54 = load ptr, ptr %6, align 8
  %55 = call i32 @tvb_get_ntoh24(ptr noundef %54, i32 noundef 0)
  %56 = icmp eq i32 %55, 3473409
  br i1 %56, label %57, label %71

57:                                               ; preds = %48
  %58 = load ptr, ptr %6, align 8
  %59 = call i32 @tvb_get_ipv4(ptr noundef %58, i32 noundef 3)
  %60 = getelementptr i8, ptr %2, i64 16
  %.val34 = load ptr, ptr %60, align 8
  %61 = getelementptr inbounds nuw i8, ptr %.val34, i64 408
  %62 = load ptr, ptr %61, align 8
  %63 = load i32, ptr @proto_ranap, align 4
  %64 = call ptr @p_get_proto_data(ptr noundef %62, ptr noundef %.val34, i32 noundef %63, i32 noundef 0)
  %65 = icmp eq ptr %64, null
  br i1 %65, label %66, label %private_data_set_transportLayerAddress_ipv4.exit36

66:                                               ; preds = %57
  %67 = load ptr, ptr %61, align 8
  %68 = call noalias dereferenceable_or_null(12) ptr @wmem_alloc0(ptr noundef %67, i64 noundef 12) #5
  %69 = load ptr, ptr %61, align 8
  %70 = load i32, ptr @proto_ranap, align 4
  call void @p_add_proto_data(ptr noundef %69, ptr noundef %.val34, i32 noundef %70, i32 noundef 0, ptr noundef %68)
  br label %private_data_set_transportLayerAddress_ipv4.exit36

private_data_set_transportLayerAddress_ipv4.exit36: ; preds = %57, %66
  %.0.i.i35 = phi ptr [ %68, %66 ], [ %64, %57 ]
  store i32 %59, ptr %.0.i.i35, align 4
  br label %71

71:                                               ; preds = %private_data_set_transportLayerAddress_ipv4.exit36, %48
  call void @dissect_nsap(ptr noundef %.032, i32 noundef 0, i32 noundef 20, ptr noundef %53)
  br label %.thread

.thread:                                          ; preds = %9, %32, %private_data_set_transportLayerAddress_ipv4.exit, %71, %5
  call void @llvm.lifetime.end.p0(i64 8, ptr nonnull %6) #4
  ret i32 %7
}